target datalayout = "e-m:e-p270:32:32-p271:32:32-p272:64:64-i64:64-i128:128-f80:128-n8:16:32:64-S128"
target triple = "x86_64-pc-linux-gnu"

@.str.14 = private unnamed_addr constant [2 x i8] c"+\00", align 1
@hexdigits = internal constant [17 x i8] c"0123456789abcdef\00", align 16
@.str.20 = private unnamed_addr constant [4 x i8] c"%20\00", align 1
@__const.urlencode_str.out = private unnamed_addr constant [3 x i8] c"%\00\00", align 1
@.str.21 = private unnamed_addr constant [3 x i8] c"//\00", align 1

; Function Attrs: nounwind uwtable
define internal ptr @find_host_sep(ptr noundef %0) #0 {
  %2 = alloca ptr, align 8
  %3 = alloca ptr, align 8
  %4 = alloca ptr, align 8
  store ptr %0, ptr %2, align 8
  %5 = load ptr, ptr %2, align 8
  %6 = call ptr @strstr(ptr noundef %5, ptr noundef @.str.21) #7
  store ptr %6, ptr %3, align 8
  %7 = load ptr, ptr %3, align 8
  %8 = icmp ne ptr %7, null
  br i1 %8, label %11, label %9

9:                                                ; preds = %1
  %10 = load ptr, ptr %2, align 8
  store ptr %10, ptr %3, align 8
  br label %14

11:                                               ; preds = %1
  %12 = load ptr, ptr %3, align 8
  %13 = getelementptr inbounds i8, ptr %12, i64 2
  store ptr %13, ptr %3, align 8
  br label %14

14:                                               ; preds = %11, %9
  %15 = load ptr, ptr %3, align 8
  %16 = call ptr @strchr(ptr noundef %15, i32 noundef 63) #7
  store ptr %16, ptr %4, align 8
  %17 = load ptr, ptr %3, align 8
  %18 = call ptr @strchr(ptr noundef %17, i32 noundef 47) #7
  store ptr %18, ptr %3, align 8
  %19 = load ptr, ptr %3, align 8
  %20 = icmp ne ptr %19, null
  br i1 %20, label %26, label %21

21:                                               ; preds = %14
  %22 = load ptr, ptr %2, align 8
  %23 = load ptr, ptr %2, align 8
  %24 = call i64 @strlen(ptr noundef %23) #7
  %25 = getelementptr inbounds i8, ptr %22, i64 %24
  store ptr %25, ptr %3, align 8
  br label %26

26:                                               ; preds = %21, %14
  %27 = load ptr, ptr %4, align 8
  %28 = icmp ne ptr %27, null
  br i1 %28, label %34, label %29

29:                                               ; preds = %26
  %30 = load ptr, ptr %2, align 8
  %31 = load ptr, ptr %2, align 8
  %32 = call i64 @strlen(ptr noundef %31) #7
  %33 = getelementptr inbounds i8, ptr %30, i64 %32
  store ptr %33, ptr %4, align 8
  br label %34

34:                                               ; preds = %29, %26
  %35 = load ptr, ptr %3, align 8
  %36 = load ptr, ptr %4, align 8
  %37 = icmp ult ptr %35, %36
  br i1 %37, label %38, label %40

38:                                               ; preds = %34
  %39 = load ptr, ptr %3, align 8
  br label %42

40:                                               ; preds = %34
  %41 = load ptr, ptr %4, align 8
  br label %42

42:                                               ; preds = %40, %38
  %43 = phi ptr [ %39, %38 ], [ %41, %40 ]
  ret ptr %43
}

; Function Attrs: nounwind uwtable
define internal i32 @urlencode_str(ptr noundef %0, ptr noundef %1, i64 noundef %2, i1 noundef zeroext %3, i1 noundef zeroext %4) #0 {
  %6 = alloca i32, align 4
  %7 = alloca ptr, align 8
  %8 = alloca ptr, align 8
  %9 = alloca i64, align 8
  %10 = alloca i8, align 1
  %11 = alloca i8, align 1
  %12 = alloca i8, align 1
  %13 = alloca ptr, align 8
  %14 = alloca ptr, align 8
  %15 = alloca i32, align 4
  %16 = alloca [3 x i8], align 1
  store ptr %0, ptr %7, align 8
  store ptr %1, ptr %8, align 8
  store i64 %2, ptr %9, align 8
  %17 = zext i1 %3 to i8
  store i8 %17, ptr %10, align 1
  %18 = zext i1 %4 to i8
  store i8 %18, ptr %11, align 1
  %19 = load i8, ptr %11, align 1
  %20 = trunc i8 %19 to i1
  %21 = xor i1 %20, true
  %22 = zext i1 %21 to i8
  store i8 %22, ptr %12, align 1
  %23 = load ptr, ptr %8, align 8
  store ptr %23, ptr %14, align 8
  %24 = load i8, ptr %10, align 1
  %25 = trunc i8 %24 to i1
  br i1 %25, label %29, label %26

26:                                               ; preds = %5
  %27 = load ptr, ptr %8, align 8
  %28 = call ptr @find_host_sep(ptr noundef %27)
  store ptr %28, ptr %14, align 8
  br label %29

29:                                               ; preds = %26, %5
  %30 = load ptr, ptr %8, align 8
  store ptr %30, ptr %13, align 8
  br label %31

31:                                               ; preds = %159, %29
  %32 = load i64, ptr %9, align 8
  %33 = icmp ne i64 %32, 0
  br i1 %33, label %34, label %164

34:                                               ; preds = %31
  %35 = load ptr, ptr %13, align 8
  %36 = load ptr, ptr %14, align 8
  %37 = icmp ult ptr %35, %36
  br i1 %37, label %38, label %49

38:                                               ; preds = %34
  %39 = load ptr, ptr %7, align 8
  %40 = load ptr, ptr %13, align 8
  %41 = call i32 @Curl_dyn_addn(ptr noundef %39, ptr noundef %40, i64 noundef 1)
  store i32 %41, ptr %15, align 4
  %42 = load i32, ptr %15, align 4
  %43 = icmp ne i32 %42, 0
  br i1 %43, label %44, label %48

44:                                               ; preds = %38
  %45 = load i32, ptr %15, align 4
  %46 = icmp eq i32 %45, 100
  %47 = select i1 %46, i32 31, i32 7
  store i32 %47, ptr %6, align 4
  br label %165

48:                                               ; preds = %38
  br label %159

49:                                               ; preds = %34
  %50 = load ptr, ptr %13, align 8
  %51 = load i8, ptr %50, align 1
  %52 = zext i8 %51 to i32
  %53 = icmp eq i32 %52, 32
  br i1 %53, label %54, label %71

54:                                               ; preds = %49
  %55 = load i8, ptr %12, align 1
  %56 = trunc i8 %55 to i1
  br i1 %56, label %57, label %60

57:                                               ; preds = %54
  %58 = load ptr, ptr %7, align 8
  %59 = call i32 @Curl_dyn_addn(ptr noundef %58, ptr noundef @.str.20, i64 noundef 3)
  store i32 %59, ptr %15, align 4
  br label %63

60:                                               ; preds = %54
  %61 = load ptr, ptr %7, align 8
  %62 = call i32 @Curl_dyn_addn(ptr noundef %61, ptr noundef @.str.14, i64 noundef 1)
  store i32 %62, ptr %15, align 4
  br label %63

63:                                               ; preds = %60, %57
  %64 = load i32, ptr %15, align 4
  %65 = icmp ne i32 %64, 0
  br i1 %65, label %66, label %70

66:                                               ; preds = %63
  %67 = load i32, ptr %15, align 4
  %68 = icmp eq i32 %67, 100
  %69 = select i1 %68, i32 31, i32 7
  store i32 %69, ptr %6, align 4
  br label %165

70:                                               ; preds = %63
  br label %159

71:                                               ; preds = %49
  %72 = load ptr, ptr %13, align 8
  %73 = load i8, ptr %72, align 1
  %74 = zext i8 %73 to i32
  %75 = icmp eq i32 %74, 63
  br i1 %75, label %76, label %77

76:                                               ; preds = %71
  store i8 0, ptr %12, align 1
  br label %77

77:                                               ; preds = %76, %71
  %78 = load ptr, ptr %13, align 8
  %79 = load i8, ptr %78, align 1
  %80 = zext i8 %79 to i32
  %81 = icmp sle i32 %80, 31
  br i1 %81, label %147, label %82

82:                                               ; preds = %77
  %83 = load ptr, ptr %13, align 8
  %84 = load i8, ptr %83, align 1
  %85 = zext i8 %84 to i32
  %86 = icmp eq i32 %85, 127
  br i1 %86, label %147, label %87

87:                                               ; preds = %82
  %88 = load ptr, ptr %13, align 8
  %89 = load i8, ptr %88, align 1
  %90 = zext i8 %89 to i32
  %91 = icmp eq i32 %90, 32
  br i1 %91, label %147, label %92

92:                                               ; preds = %87
  %93 = load ptr, ptr %13, align 8
  %94 = load i8, ptr %93, align 1
  %95 = zext i8 %94 to i32
  %96 = icmp eq i32 %95, 9
  br i1 %96, label %147, label %97

97:                                               ; preds = %92
  %98 = load ptr, ptr %13, align 8
  %99 = load i8, ptr %98, align 1
  %100 = zext i8 %99 to i32
  %101 = icmp sge i32 %100, 10
  br i1 %101, label %102, label %107

102:                                              ; preds = %97
  %103 = load ptr, ptr %13, align 8
  %104 = load i8, ptr %103, align 1
  %105 = zext i8 %104 to i32
  %106 = icmp sle i32 %105, 13
  br i1 %106, label %147, label %107

107:                                              ; preds = %102, %97
  %108 = load ptr, ptr %13, align 8
  %109 = load i8, ptr %108, align 1
  %110 = zext i8 %109 to i32
  %111 = icmp sge i32 %110, 9
  br i1 %111, label %112, label %117

112:                                              ; preds = %107
  %113 = load ptr, ptr %13, align 8
  %114 = load i8, ptr %113, align 1
  %115 = zext i8 %114 to i32
  %116 = icmp sle i32 %115, 13
  br i1 %116, label %147, label %117

117:                                              ; preds = %112, %107
  %118 = load ptr, ptr %13, align 8
  %119 = load i8, ptr %118, align 1
  %120 = zext i8 %119 to i32
  %121 = icmp sgt i32 %120, 32
  br i1 %121, label %122, label %127

122:                                              ; preds = %117
  %123 = load ptr, ptr %13, align 8
  %124 = load i8, ptr %123, align 1
  %125 = zext i8 %124 to i32
  %126 = icmp sle i32 %125, 126
  br i1 %126, label %147, label %127

127:                                              ; preds = %122, %117
  call void @llvm.memcpy.p0.p0.i64(ptr align 1 %16, ptr align 1 @__const.urlencode_str.out, i64 3, i1 false)
  %128 = load ptr, ptr %13, align 8
  %129 = load i8, ptr %128, align 1
  %130 = zext i8 %129 to i32
  %131 = ashr i32 %130, 4
  %132 = sext i32 %131 to i64
  %133 = getelementptr inbounds [17 x i8], ptr @hexdigits, i64 0, i64 %132
  %134 = load i8, ptr %133, align 1
  %135 = getelementptr inbounds [3 x i8], ptr %16, i64 0, i64 1
  store i8 %134, ptr %135, align 1
  %136 = load ptr, ptr %13, align 8
  %137 = load i8, ptr %136, align 1
  %138 = zext i8 %137 to i32
  %139 = and i32 %138, 15
  %140 = sext i32 %139 to i64
  %141 = getelementptr inbounds [17 x i8], ptr @hexdigits, i64 0, i64 %140
  %142 = load i8, ptr %141, align 1
  %143 = getelementptr inbounds [3 x i8], ptr %16, i64 0, i64 2
  store i8 %142, ptr %143, align 1
  %144 = load ptr, ptr %7, align 8
  %145 = getelementptr inbounds [3 x i8], ptr %16, i64 0, i64 0
  %146 = call i32 @Curl_dyn_addn(ptr noundef %144, ptr noundef %145, i64 noundef 3)
  store i32 %146, ptr %15, align 4
  br label %151

147:                                              ; preds = %122, %112, %102, %92, %87, %82, %77
  %148 = load ptr, ptr %7, align 8
  %149 = load ptr, ptr %13, align 8
  %150 = call i32 @Curl_dyn_addn(ptr noundef %148, ptr noundef %149, i64 noundef 1)
  store i32 %150, ptr %15, align 4
  br label %151

151:                                              ; preds = %147, %127
  %152 = load i32, ptr %15, align 4
  %153 = icmp ne i32 %152, 0
  br i1 %153, label %154, label %158

154:                                              ; preds = %151
  %155 = load i32, ptr %15, align 4
  %156 = icmp eq i32 %155, 100
  %157 = select i1 %156, i32 31, i32 7
  store i32 %157, ptr %6, align 4
  br label %165

158:                                              ; preds = %151
  br label %159

159:                                              ; preds = %158, %70, %48
  %160 = load ptr, ptr %13, align 8
  %161 = getelementptr inbounds i8, ptr %160, i32 1
  store ptr %161, ptr %13, align 8
  %162 = load i64, ptr %9, align 8
  %163 = add i64 %162, -1
  store i64 %163, ptr %9, align 8
  br label %31, !llvm.loop !9

164:                                              ; preds = %31
  store i32 0, ptr %6, align 4
  br label %165

165:                                              ; preds = %164, %154, %66, %44
  %166 = load i32, ptr %6, align 4
  ret i32 %166
}