; Function Attrs: nounwind uwtable
define internal fastcc range(i32 0, 32) i32 @urlencode_str(ptr noundef nonnull %0, ptr noundef %1, i64 noundef %2, i1 noundef zeroext %3, i1 noundef zeroext %4) unnamed_addr #0 {
  %6 = alloca [3 x i8], align 1
  %7 = xor i1 %4, true
  br i1 %3, label %22, label %8

8:                                                ; preds = %5
  %9 = tail call ptr @strstr(ptr noundef nonnull readonly dereferenceable(1) %1, ptr noundef nonnull dereferenceable(1) @.str.21) #11
  %.not.i = icmp eq ptr %9, null
  %10 = getelementptr inbounds nuw i8, ptr %9, i64 2
  %.016.i = select i1 %.not.i, ptr %1, ptr %10
  %11 = tail call ptr @strchr(ptr noundef nonnull dereferenceable(1) %.016.i, i32 noundef 63) #11
  %12 = tail call ptr @strchr(ptr noundef nonnull dereferenceable(1) %.016.i, i32 noundef 47) #11
  %.not20.i = icmp eq ptr %12, null
  br i1 %.not20.i, label %13, label %16

13:                                               ; preds = %8
  %14 = tail call i64 @strlen(ptr noundef nonnull readonly dereferenceable(1) %1) #11
  %15 = getelementptr inbounds i8, ptr %1, i64 %14
  br label %16

16:                                               ; preds = %13, %8
  %.1.i = phi ptr [ %12, %8 ], [ %15, %13 ]
  %.not21.i = icmp eq ptr %11, null
  br i1 %.not21.i, label %17, label %find_host_sep.exit

17:                                               ; preds = %16
  %18 = tail call i64 @strlen(ptr noundef nonnull readonly dereferenceable(1) %1) #11
  %19 = getelementptr inbounds i8, ptr %1, i64 %18
  br label %find_host_sep.exit

find_host_sep.exit:                               ; preds = %16, %17
  %.0.i = phi ptr [ %11, %16 ], [ %19, %17 ]
  %20 = icmp ult ptr %.1.i, %.0.i
  %21 = select i1 %20, ptr %.1.i, ptr %.0.i
  br label %22

22:                                               ; preds = %find_host_sep.exit, %5
  %.038 = phi ptr [ %1, %5 ], [ %21, %find_host_sep.exit ]
  %.not61 = icmp eq i64 %2, 0
  br i1 %.not61, label %.loopexit, label %.lr.ph

.lr.ph:                                           ; preds = %22
  %23 = getelementptr inbounds nuw i8, ptr %6, i64 1
  %24 = getelementptr inbounds nuw i8, ptr %6, i64 2
  br label %25

25:                                               ; preds = %.lr.ph, %61
  %.03964 = phi ptr [ %1, %.lr.ph ], [ %62, %61 ]
  %.04063 = phi i1 [ %7, %.lr.ph ], [ %.141, %61 ]
  %.04362 = phi i64 [ %2, %.lr.ph ], [ %63, %61 ]
  %26 = icmp ult ptr %.03964, %.038
  br i1 %26, label %27, label %32

27:                                               ; preds = %25
  %28 = call i32 @Curl_dyn_addn(ptr noundef nonnull %0, ptr noundef %.03964, i64 noundef 1) #10
  %.not51 = icmp eq i32 %28, 0
  br i1 %.not51, label %61, label %29

29:                                               ; preds = %27
  %30 = icmp eq i32 %28, 100
  %31 = select i1 %30, i32 31, i32 7
  br label %.loopexit

32:                                               ; preds = %25
  %33 = load i8, ptr %.03964, align 1
  switch i8 %33, label %43 [
    i8 32, label %34
    i8 63, label %switch.early.test.thread.thread
  ]

34:                                               ; preds = %32
  br i1 %.04063, label %35, label %37

35:                                               ; preds = %34
  %36 = call i32 @Curl_dyn_addn(ptr noundef nonnull %0, ptr noundef nonnull @.str.20, i64 noundef 3) #10
  br label %39

37:                                               ; preds = %34
  %38 = call i32 @Curl_dyn_addn(ptr noundef nonnull %0, ptr noundef nonnull @.str.14, i64 noundef 1) #10
  br label %39

39:                                               ; preds = %37, %35
  %.0 = phi i32 [ %36, %35 ], [ %38, %37 ]
  %.not50 = icmp eq i32 %.0, 0
  br i1 %.not50, label %61, label %40

40:                                               ; preds = %39
  %41 = icmp eq i32 %.0, 100
  %42 = select i1 %41, i32 31, i32 7
  br label %.loopexit

43:                                               ; preds = %32
  %44 = icmp ult i8 %33, 32
  br i1 %44, label %switch.early.test.thread.thread, label %switch.early.test

switch.early.test:                                ; preds = %43
  switch i8 %33, label %switch.early.test.thread [
    i8 127, label %switch.early.test.thread.thread
    i8 32, label %switch.early.test.thread.thread
  ]

switch.early.test.thread:                         ; preds = %switch.early.test
  %45 = icmp ult i8 %33, 127
  br i1 %45, label %switch.early.test.thread.thread, label %46

46:                                               ; preds = %switch.early.test.thread
  store i8 37, ptr %6, align 1
  %47 = lshr i8 %33, 4
  %48 = zext nneg i8 %47 to i64
  %49 = getelementptr inbounds nuw [17 x i8], ptr @hexdigits, i64 0, i64 %48
  %50 = load i8, ptr %49, align 1
  store i8 %50, ptr %23, align 1
  %51 = and i8 %33, 15
  %52 = zext nneg i8 %51 to i64
  %53 = getelementptr inbounds nuw [17 x i8], ptr @hexdigits, i64 0, i64 %52
  %54 = load i8, ptr %53, align 1
  store i8 %54, ptr %24, align 1
  %55 = call i32 @Curl_dyn_addn(ptr noundef nonnull %0, ptr noundef nonnull %6, i64 noundef 3) #10
  br label %57

switch.early.test.thread.thread:                  ; preds = %32, %switch.early.test, %switch.early.test, %43, %switch.early.test.thread
  %.257 = phi i1 [ %.04063, %switch.early.test ], [ %.04063, %switch.early.test ], [ %.04063, %43 ], [ %.04063, %switch.early.test.thread ], [ false, %32 ]
  %56 = call i32 @Curl_dyn_addn(ptr noundef nonnull %0, ptr noundef nonnull %.03964, i64 noundef 1) #10
  br label %57

57:                                               ; preds = %switch.early.test.thread.thread, %46
  %.256 = phi i1 [ %.257, %switch.early.test.thread.thread ], [ %.04063, %46 ]
  %.1 = phi i32 [ %56, %switch.early.test.thread.thread ], [ %55, %46 ]
  %.not49 = icmp eq i32 %.1, 0
  br i1 %.not49, label %61, label %58

58:                                               ; preds = %57
  %59 = icmp eq i32 %.1, 100
  %60 = select i1 %59, i32 31, i32 7
  br label %.loopexit

61:                                               ; preds = %57, %39, %27
  %.141 = phi i1 [ %.04063, %27 ], [ %.04063, %39 ], [ %.256, %57 ]
  %62 = getelementptr inbounds nuw i8, ptr %.03964, i64 1
  %63 = add i64 %.04362, -1
  %.not = icmp eq i64 %63, 0
  br i1 %.not, label %.loopexit, label %25, !llvm.loop !10

.loopexit:                                        ; preds = %61, %22, %58, %40, %29
  %.042 = phi i32 [ %31, %29 ], [ %42, %40 ], [ %60, %58 ], [ 0, %22 ], [ 0, %61 ]
  ret i32 %.042
}